; Function Attrs: nounwind sspstrong uwtable
define internal i64 @p_uid_switch(i64 %0) #1 {
  %.b.i = load i1, ptr @under_uid_switch, align 4
  br i1 %.b.i, label %2, label %check_uid_switch.exit

2:                                                ; preds = %1
  %3 = load i64, ptr @rb_eRuntimeError, align 8, !tbaa !43
  tail call void (i64, ptr, ...) @rb_raise(i64 noundef %3, ptr noundef nonnull @.str.228) #29
  unreachable

check_uid_switch.exit:                            ; preds = %1
  %4 = tail call i32 @getuid() #27
  %5 = tail call i32 @geteuid() #27
  %.not = icmp eq i32 %4, %5
  br i1 %.not, label %21, label %6

6:                                                ; preds = %check_uid_switch.exit
  %7 = tail call i32 @setresuid(i32 noundef -1, i32 noundef %4, i32 noundef -1) #27
  %8 = icmp slt i32 %7, 0
  br i1 %8, label %9, label %proc_seteuid.exit

9:                                                ; preds = %6
  %10 = tail call ptr @rb_errno_ptr() #27
  %11 = load i32, ptr %10, align 4, !tbaa !60
  tail call void @rb_syserr_fail(i32 noundef %11, ptr noundef null) #29
  unreachable

proc_seteuid.exit:                                ; preds = %6
  %12 = tail call i32 @rb_block_given_p() #27
  %.not14 = icmp eq i32 %12, 0
  br i1 %.not14, label %17, label %13

13:                                               ; preds = %proc_seteuid.exit
  store i1 true, ptr @under_uid_switch, align 4
  %14 = load i32, ptr @SAVED_USER_ID, align 4, !tbaa !60
  %15 = zext i32 %14 to i64
  %16 = tail call i64 @rb_ensure(ptr noundef nonnull @rb_yield, i64 noundef 4, ptr noundef nonnull @p_uid_sw_ensure, i64 noundef %15) #27
  br label %38

17:                                               ; preds = %proc_seteuid.exit
  %18 = zext i32 %5 to i64
  %19 = shl nuw nsw i64 %18, 1
  %20 = or disjoint i64 %19, 1
  br label %38

21:                                               ; preds = %check_uid_switch.exit
  %22 = load i32, ptr @SAVED_USER_ID, align 4, !tbaa !60
  %.not12 = icmp eq i32 %4, %22
  br i1 %.not12, label %37, label %23

23:                                               ; preds = %21
  %24 = tail call i32 @setresuid(i32 noundef -1, i32 noundef %22, i32 noundef -1) #27
  %25 = icmp slt i32 %24, 0
  br i1 %25, label %26, label %proc_seteuid.exit15

26:                                               ; preds = %23
  %27 = tail call ptr @rb_errno_ptr() #27
  %28 = load i32, ptr %27, align 4, !tbaa !60
  tail call void @rb_syserr_fail(i32 noundef %28, ptr noundef null) #29
  unreachable

proc_seteuid.exit15:                              ; preds = %23
  %29 = tail call i32 @rb_block_given_p() #27
  %.not13 = icmp eq i32 %29, 0
  br i1 %.not13, label %33, label %30

30:                                               ; preds = %proc_seteuid.exit15
  store i1 true, ptr @under_uid_switch, align 4
  %31 = zext i32 %4 to i64
  %32 = tail call i64 @rb_ensure(ptr noundef nonnull @rb_yield, i64 noundef 4, ptr noundef nonnull @p_uid_sw_ensure, i64 noundef %31) #27
  br label %38

33:                                               ; preds = %proc_seteuid.exit15
  %34 = zext i32 %4 to i64
  %35 = shl nuw nsw i64 %34, 1
  %36 = or disjoint i64 %35, 1
  br label %38

37:                                               ; preds = %21
  tail call void @rb_syserr_fail(i32 noundef 1, ptr noundef null) #29
  unreachable

38:                                               ; preds = %33, %30, %17, %13
  %.0 = phi i64 [ %16, %13 ], [ %20, %17 ], [ %32, %30 ], [ %36, %33 ]
  ret i64 %.0
}